; Function Attrs: nounwind uwtable
define void @Gia_ManPrintCone2(ptr noundef %0, ptr noundef %1) local_unnamed_addr #2 {
  %3 = tail call noalias dereferenceable_or_null(16) ptr @malloc(i64 noundef 16) #40
  %4 = getelementptr inbounds nuw i8, ptr %3, i64 4
  store i32 0, ptr %4, align 4
  store i32 100, ptr %3, align 8
  %5 = tail call noalias dereferenceable_or_null(400) ptr @malloc(i64 noundef 400) #40
  %6 = getelementptr inbounds nuw i8, ptr %3, i64 8
  store ptr %5, ptr %6, align 8
  tail call void @Gia_ManPrintCollect2_rec(ptr noundef %0, ptr noundef %1, ptr noundef nonnull %3)
  %7 = getelementptr i8, ptr %0, i64 32
  %.val14 = load ptr, ptr %7, align 8
  %8 = ptrtoint ptr %1 to i64
  %9 = ptrtoint ptr %.val14 to i64
  %10 = sub i64 %8, %9
  %11 = sdiv exact i64 %10, 12
  %12 = trunc i64 %11 to i32
  %13 = tail call i32 (ptr, ...) @printf(ptr noundef nonnull dereferenceable(1) @.str.22, i32 noundef %12)
  %.val1617 = load i32, ptr %4, align 4
  %14 = icmp sgt i32 %.val1617, 0
  br i1 %14, label %.lr.ph, label %.critedge

.lr.ph:                                           ; preds = %2, %15
  %indvars.iv = phi i64 [ %indvars.iv.next, %15 ], [ 0, %2 ]
  %.val = load ptr, ptr %7, align 8
  %.not = icmp eq ptr %.val, null
  br i1 %.not, label %.critedge, label %15

15:                                               ; preds = %.lr.ph
  %.val15 = load ptr, ptr %6, align 8
  %16 = getelementptr inbounds nuw i32, ptr %.val15, i64 %indvars.iv
  %17 = load i32, ptr %16, align 4
  %18 = sext i32 %17 to i64
  %19 = getelementptr inbounds %struct.Gia_Obj_t_, ptr %.val, i64 %18
  tail call void @Gia_ObjPrint(ptr noundef nonnull %0, ptr noundef nonnull %19)
  %indvars.iv.next = add nuw nsw i64 %indvars.iv, 1
  %.val16 = load i32, ptr %4, align 4
  %20 = sext i32 %.val16 to i64
  %21 = icmp slt i64 %indvars.iv.next, %20
  br i1 %21, label %.lr.ph, label %.critedge, !llvm.loop !60

.critedge:                                        ; preds = %.lr.ph, %15, %2
  %22 = load ptr, ptr %6, align 8
  %.not.i = icmp eq ptr %22, null
  br i1 %.not.i, label %Vec_IntFree.exit, label %23

23:                                               ; preds = %.critedge
  tail call void @free(ptr noundef nonnull %22) #36
  br label %Vec_IntFree.exit

Vec_IntFree.exit:                                 ; preds = %.critedge, %23
  tail call void @free(ptr noundef nonnull %3) #36
  ret void
}